(dp0
S'thresh'
p1
F0.018709096442373084
sS'mat'
p2
(lp3
(lp4
F-8.650615423153349
aF-3.937285825173269
aF-3.221022728107473
aF-3.048756497797112
aF-6.052631628746378
aF-4.700184602597989
aF-3.994645022067802
aF-6.7127861261519755
aF-3.2461631929449775
aF-7.061092820420191
aF-4.512635925034379
aF-2.5001027515612493
aF-3.6430835311810923
aF-1.571098845982584
aF-7.99331437436654
aF-3.8941154336796413
aF-9.82225284683635
aF-2.3028809436902202
aF-2.348822253906988
aF-1.9453901570775955
aF-4.540203452752684
aF-3.872320773852221
aF-4.707803687074429
aF-6.5606659038750985
aF-3.6500778886177154
aF-6.642306868336366
aF-2.721850713012325
aF-10.61071020720062
aF-10.61071020720062
aF-10.61071020720062
aF-10.61071020720062
aF-10.515400027396295
aF-10.515400027396295
aF-10.61071020720062
aF-10.61071020720062
aF-10.61071020720062
aF-10.61071020720062
aF-7.199562494685296
aa(lp5
F-2.5543605134666723
aF-5.1407247234439275
aF-6.051218337633756
aF-6.220903310423199
aF-1.1750948229976166
aF-8.565452602516277
aF-8.806614659333164
aF-8.496459731029326
aF-3.33434398566169
aF-5.0060312156392275
aF-8.806614659333164
aF-2.140583578610889
aF-6.123105567147072
aF-6.810060777459096
aF-2.14743729655857
aF-8.31413817423537
aF-8.90192483913749
aF-2.7208735242441406
aF-3.7899370507809462
aF-4.704722891475681
aF-2.1388485715247962
aF-6.321708009545164
aF-7.708002370665055
aF-8.90192483913749
aF-2.362627942634421
aF-8.90192483913749
aF-4.7731788501980565
aF-8.90192483913749
aF-8.90192483913749
aF-8.90192483913749
aF-8.90192483913749
aF-8.90192483913749
aF-8.90192483913749
aF-8.90192483913749
aF-8.90192483913749
aF-8.90192483913749
aF-8.90192483913749
aF-7.738774029331808
aa(lp6
F-2.0903265597811345
aF-9.399092596522056
aF-3.8474258366027434
aF-7.6793066269190895
aF-1.7399212288559973
aF-8.79295679295174
aF-9.58141415331601
aF-1.9101464311133642
aF-2.933985216775799
aF-9.486103973511685
aF-3.3444576512300563
aF-3.2775139474150565
aF-8.516703416323582
aF-8.888266972756064
aF-1.6008431407097734
aF-9.486103973511685
aF-6.386831021016854
aF-3.3784738597615003
aF-5.838993932274044
aF-2.3919445736618834
aF-3.2192484905362035
aF-9.58141415331601
aF-8.839476808586634
aF-9.58141415331601
aF-4.622072153607305
aF-8.328651184820641
aF-3.8849920330661014
aF-9.58141415331601
aF-9.244941916694797
aF-9.486103973511685
aF-9.111410524070275
aF-9.58141415331601
aF-9.58141415331601
aF-9.58141415331601
aF-9.58141415331601
aF-9.58141415331601
aF-9.58141415331601
aF-7.69434450428363
aa(lp7
F-3.721856201484159
aF-7.435428268188467
aF-7.900485473498877
aF-4.565934095313858
aF-1.9706164140819624
aF-6.801873184830767
aF-5.431048745483008
aF-6.758948140113733
aF-2.463436443414455
aF-6.277975479497424
aF-7.666870622317371
aF-4.559392015906427
aF-5.519478418729028
aF-5.947084652714406
aF-3.117609630768797
aF-8.381071212075149
aF-8.136874251563107
aF-3.6249164472971946
aF-3.681752061818675
aF-7.213938976970284
aF-3.995063152102083
aF-5.569364073239897
aF-7.077927219287429
aF-9.928633720791163
aF-4.6144430050868355
aF-9.746312163997208
aF-0.5407247360522047
aF-9.928633720791163
aF-9.746312163997208
aF-9.746312163997208
aF-9.928633720791163
aF-9.928633720791163
aF-9.928633720791163
aF-9.928633720791163
aF-9.928633720791163
aF-9.928633720791163
aF-9.928633720791163
aF-7.435428268188467
aa(lp8
F-3.0961912987266236
aF-6.33094768336225
aF-3.711975595543176
aF-2.4145751763860104
aF-3.728393673923773
aF-4.555498777291717
aF-4.958484801390822
aF-6.3447791625107115
aF-4.466214672051085
aF-8.043510110929112
aF-7.013165793390005
aF-3.4399656111352703
aF-3.749302747570065
aF-2.3894014394673024
aF-5.281766790049378
aF-4.427665405781832
aF-6.2653794727566625
aF-1.9765426259982977
aF-2.519595353403608
aF-3.734654753312754
aF-6.052234280893229
aF-4.115573787520353
aF-4.720960471271383
aF-4.4514267115587165
aF-4.535836085442936
aF-7.732002460065261
aF-1.1306258755800696
aF-11.024128746673055
aF-10.282191401943678
aF-10.493500495610885
aF-10.761764482205564
aF-10.761764482205564
aF-10.8418071898791
aF-10.761764482205564
aF-10.554125117427319
aF-10.436342081770936
aF-10.493500495610885
aF-7.542888657337363
aa(lp9
F-2.7643794424448083
aF-7.912414605943507
aF-7.530479995245536
aF-8.53812050570792
aF-2.452037717734899
aF-2.927057367093566
aF-7.61317171109065
aF-8.53812050570792
aF-2.4515434267851877
aF-9.03455739202181
aF-8.729175742470629
aF-3.749180536749509
aF-8.840401377580854
aF-7.666281536404599
aF-1.9053170791626246
aF-8.306318891650594
aF-9.371029628643024
aF-2.3567545062832136
aF-5.930611533827586
aF-3.3168250517138556
aF-3.5068304325809176
aF-9.371029628643024
aF-7.802413710729178
aF-9.371029628643024
aF-6.136280454618532
aF-9.371029628643024
aF-0.9992784808771438
aF-9.371029628643024
aF-9.188708071849069
aF-9.188708071849069
aF-8.677882448083079
aF-9.188708071849069
aF-9.188708071849069
aF-9.188708071849069
aF-9.371029628643024
aF-9.275719448838698
aF-9.371029628643024
aF-8.629092283913646
aa(lp10
F-2.682506537422806
aF-8.561486487325613
aF-8.119653735046574
aF-6.8875100537539415
aF-1.964416580338001
aF-7.925497720605616
aF-4.620984010575598
aF-2.2225979883930838
aF-2.8627165544929563
aF-9.149273152227732
aF-8.561486487325613
aF-3.3593129813304783
aF-6.076579837537612
aF-3.741204921720576
aF-2.8331920848749066
aF-7.955350683755297
aF-9.053962972423408
aF-2.5539025583377475
aF-4.064149006140737
aF-4.947570071685132
aF-3.4957318940082778
aF-9.149273152227732
aF-7.580657234313887
aF-9.149273152227732
aF-5.883513741460681
aF-8.618644901165561
aF-1.0333339481481942
aF-9.149273152227732
aF-8.966951595433777
aF-9.149273152227732
aF-9.149273152227732
aF-9.149273152227732
aF-9.149273152227732
aF-9.149273152227732
aF-9.149273152227732
aF-9.149273152227732
aF-9.149273152227732
aF-7.045138997957524
aa(lp11
F-1.8954164069610975
aF-7.387613506694017
aF-8.053511044806587
aF-7.542685421040597
aF-0.7290494183667108
aF-7.858722719247503
aF-9.641671558793403
aF-8.848440919676476
aF-1.9955441802653764
aF-10.101203888171844
aF-7.885630172167427
aF-6.635467985372117
aF-6.261751575578532
aF-6.705577551559142
aF-2.562176832347848
aF-9.25390602778464
aF-10.101203888171844
aF-4.572436395127158
aF-6.224808060386848
aF-3.765558794706817
aF-4.622650471320873
aF-9.541588100236421
aF-7.382103850883047
aF-10.283525444965797
aF-5.0249889484296055
aF-10.188215265161473
aF-2.363551263482669
aF-10.283525444965797
aF-9.947053208344585
aF-10.188215265161473
aF-10.283525444965797
aF-10.283525444965797
aF-10.283525444965797
aF-10.283525444965797
aF-10.283525444965797
aF-10.283525444965797
aF-10.283525444965797
aF-8.714909527051953
aa(lp12
F-3.7125706876725695
aF-4.71780108325478
aF-2.7843101716403855
aF-3.221927177931333
aF-3.168662324774192
aF-3.9041512569858083
aF-3.6812250024999202
aF-9.14494815320913
aF-6.4233154003410515
aF-10.323603149550777
aF-5.241164123325538
aF-3.079851937838308
aF-3.174078855131265
aF-1.3130052003115127
aF-2.6647069769801197
aF-4.923933288742453
aF-7.895854913602725
aF-3.4100314852472
aF-2.0519056339527664
aF-2.101519546415117
aF-6.511400479404841
aF-3.8170719844195493
aF-9.673015583409628
aF-6.1686339655122415
aF-10.410614526540407
aF-5.512096530564857
aF-3.7912688573284274
aF-10.50592470634473
aF-9.864070820172337
aF-10.323603149550777
aF-10.50592470634473
aF-10.50592470634473
aF-10.50592470634473
aF-10.50592470634473
aF-10.50592470634473
aF-10.50592470634473
aF-10.50592470634473
aF-9.34277389653905
aa(lp13
F-2.359035872116558
aF-6.1186843971187015
aF-6.05414587598113
aF-6.524149505226866
aF-1.4316270516584262
aF-6.261785240759375
aF-6.187677268605653
aF-6.341827948432911
aF-5.530897732216583
aF-6.524149505226866
aF-6.261785240759375
aF-6.428839325422541
aF-6.341827948432911
aF-6.524149505226866
aF-1.2946464546791892
aF-6.428839325422541
aF-6.341827948432911
aF-6.1186843971187015
aF-6.1186843971187015
aF-6.261785240759375
aF-1.1165294037883793
aF-6.524149505226866
aF-6.261785240759375
aF-6.524149505226866
aF-6.524149505226866
aF-6.524149505226866
aF-4.934914300110285
aF-6.524149505226866
aF-6.524149505226866
aF-6.524149505226866
aF-6.524149505226866
aF-6.524149505226866
aF-6.524149505226866
aF-6.524149505226866
aF-6.524149505226866
aF-6.524149505226866
aF-6.524149505226866
aF-6.261785240759375
aa(lp14
F-3.6241862419713384
aF-7.051237002459827
aF-6.0659533990987216
aF-7.675391311532822
aF-1.2149653447575477
aF-6.289096950412931
aF-6.828093451145618
aF-3.6370293840616577
aF-1.7889169782824708
aF-7.818492155173495
aF-7.493069754738867
aF-3.8912016776145606
aF-6.052708172348701
aF-2.357925126146024
aF-3.845301688867362
aF-7.5502281685788155
aF-7.985546239836661
aF-5.493092384413278
aF-3.004433385006727
aF-6.745855352908646
aF-3.74225934289444
aF-7.247947296705882
aF-5.441799090025727
aF-8.080856419640986
aF-4.686348026129627
aF-8.080856419640986
aF-1.435375409176097
aF-8.080856419640986
aF-8.080856419640986
aF-8.080856419640986
aF-8.080856419640986
aF-8.080856419640986
aF-8.080856419640986
aF-8.080856419640986
aF-8.080856419640986
aF-8.080856419640986
aF-8.080856419640986
aF-6.576779022864712
aa(lp15
F-2.269774721226551
aF-6.573889132606944
aF-5.747666867894916
aF-2.8602280543755847
aF-1.7847564012170702
aF-4.144639233821735
aF-6.844682987030203
aF-7.744365982504698
aF-2.1757072039301404
aF-9.702110589207015
aF-4.957178460843764
aF-2.0665249391040867
aF-5.06092996569589
aF-6.493285100192315
aF-2.451475077308334
aF-5.604992100102188
aF-9.702110589207015
aF-5.648877415227345
aF-3.880298195792324
aF-3.8653524318600136
aF-3.8215776028063138
aF-5.091952861707884
aF-5.46679708385972
aF-9.884432146000968
aF-2.3341916012611144
aF-8.603498300538904
aF-2.045182301402404
aF-9.884432146000968
aF-9.884432146000968
aF-9.884432146000968
aF-9.884432146000968
aF-9.884432146000968
aF-9.884432146000968
aF-9.884432146000968
aF-9.884432146000968
aF-9.884432146000968
aF-9.884432146000968
aF-8.274994233566868
aa(lp16
F-1.7550485927132142
aF-3.685446728115087
aF-6.560319203731936
aF-8.478372398284282
aF-1.3664838938531891
aF-6.413458957167357
aF-9.338573663507395
aF-8.239961374839284
aF-2.4401343711627215
aF-9.171519578844228
aF-8.903255592249549
aF-6.2070398487943415
aF-3.642090491332805
aF-5.663424402205361
aF-2.2290656300720495
aF-2.698222600968101
aF-9.433883843311719
aF-5.504020919755242
aF-3.539205564891429
aF-6.940678390709024
aF-3.4695335886953096
aF-9.251562286517764
aF-8.09888277657938
aF-9.433883843311719
aF-3.4258080303985405
aF-9.433883843311719
aF-1.9006180324854482
aF-9.433883843311719
aF-9.338573663507395
aF-9.433883843311719
aF-9.433883843311719
aF-9.433883843311719
aF-9.433883843311719
aF-9.433883843311719
aF-9.433883843311719
aF-9.433883843311719
aF-9.433883843311719
aF-7.2366592659755
aa(lp17
F-3.412485358579961
aF-6.731007025549086
aF-3.091529871877684
aF-1.740684929903549
aF-2.5019233702585786
aF-4.818118744798719
aF-2.1136148495351788
aF-6.810663110368396
aF-3.296720487079815
aF-6.253203270088042
aF-4.918202203355702
aF-4.633174160897827
aF-5.990285755260658
aF-4.667350669858663
aF-2.8772130218486116
aF-7.615331565360749
aF-6.864869928204823
aF-7.187643320467874
aF-3.052916420800088
aF-2.265872601323813
aF-4.900562414009794
aF-5.349363835604927
aF-7.158760446319088
aF-7.454780863688023
aF-4.546756164175539
aF-8.80813106908856
aF-1.4677519769126932
aF-10.494530022658788
aF-10.312208465864833
aF-10.399219842854464
aF-10.494530022658788
aF-10.399219842854464
aF-10.399219842854464
aF-10.399219842854464
aF-10.494530022658788
aF-10.494530022658788
aF-10.494530022658788
aF-7.329054974517703
aa(lp18
F-5.082543692904307
aF-5.142695935759064
aF-4.276900657094387
aF-4.08551912145533
aF-5.760270688776377
aF-2.175075919760827
aF-5.288923875984174
aF-6.090476414125778
aF-4.471874634584886
aF-6.907176986803442
aF-4.432960959177728
aF-3.228111154137831
aF-2.821594659416847
aF-1.768411143136854
aF-3.5159247276746854
aF-3.95210396059708
aF-8.986618528483278
aF-2.1667613831796584
aF-3.3715154879174043
aF-3.122750638480005
aF-2.210491691979578
aF-3.545373944477833
aF-3.1407820542327762
aF-6.663414148286497
aF-5.513746688818103
aF-7.704527944893391
aF-2.214659108858163
aF-10.555234446397124
aF-10.292870181929633
aF-10.555234446397124
aF-10.555234446397124
aF-10.555234446397124
aF-10.555234446397124
aF-10.555234446397124
aF-10.555234446397124
aF-10.37291288960317
aF-10.555234446397124
aF-8.60932429734181
aa(lp19
F-2.1373802673800886
aF-7.649864847988471
aF-6.523278707277956
aF-8.504280176144539
aF-1.7357294948829516
aF-6.502800175934415
aF-7.786440382994222
aF-3.643692878291942
aF-2.6553877663132286
aF-8.455490011975106
aF-7.862426289972144
aF-2.386293116326773
aF-6.364214012648269
aF-7.295319830307564
aF-2.1173166852402425
aF-2.7918683747902837
aF-9.197427356704484
aF-1.78798811187364
aF-3.8498437488535298
aF-3.2956140315491487
aF-3.1982426865813642
aF-9.197427356704484
aF-7.0811718419019325
aF-9.197427356704484
aF-4.988267120053802
aF-9.197427356704484
aF-2.9382283749544174
aF-9.197427356704484
aF-9.197427356704484
aF-9.197427356704484
aF-9.197427356704484
aF-9.197427356704484
aF-9.197427356704484
aF-9.197427356704484
aF-9.197427356704484
aF-9.197427356704484
aF-9.197427356704484
aF-8.79196224859632
aa(lp20
F-6.204759762367377
aF-6.204759762367377
aF-6.204759762367377
aF-6.204759762367377
aF-6.204759762367377
aF-6.204759762367377
aF-6.204759762367377
aF-6.204759762367377
aF-6.204759762367377
aF-6.204759762367377
aF-6.204759762367377
aF-6.204759762367377
aF-6.204759762367377
aF-6.204759762367377
aF-6.204759762367377
aF-6.204759762367377
aF-6.204759762367377
aF-6.204759762367377
aF-6.204759762367377
aF-6.204759762367377
aF-0.0796388304467218
aF-6.204759762367377
aF-6.204759762367377
aF-6.204759762367377
aF-6.204759762367377
aF-6.204759762367377
aF-5.562905876194983
aF-6.204759762367377
aF-6.204759762367377
aF-6.204759762367377
aF-6.204759762367377
aF-6.204759762367377
aF-6.204759762367377
aF-6.204759762367377
aF-6.204759762367377
aF-6.204759762367377
aF-6.204759762367377
aF-6.204759762367377
aa(lp21
F-2.5728215280334106
aF-5.992468654154429
aF-4.319975533586493
aF-3.728840804413576
aF-1.42298708659595
aF-5.357643084029468
aF-4.332172324486837
aF-6.0341693833533725
aF-2.3650582164659024
aF-9.405594606681857
aF-4.850875964189865
aF-4.673967996741207
aF-3.745415769507789
aF-3.9169875136906898
aF-2.322575954717673
aF-5.414390803379271
aF-9.04095149309395
aF-3.637398618701237
aF-2.902085179403156
aF-3.235147404045436
aF-3.982231751159597
aF-4.906229479590743
aF-6.261442328009593
aF-10.139563781762059
aF-3.259008422706576
aF-8.070593539949519
aF-1.72967744333433
aF-10.139563781762059
aF-10.226575158751688
aF-10.059521074088522
aF-10.321885338556013
aF-10.321885338556013
aF-10.321885338556013
aF-10.321885338556013
aF-10.226575158751688
aF-10.321885338556013
aF-10.321885338556013
aF-8.070593539949519
aa(lp22
F-3.2123162210620273
aF-6.344359910238273
aF-4.095851819470004
aF-7.617577126739193
aF-2.1594378606375737
aF-6.18819917948299
aF-7.882460284226168
aF-2.9161252490264924
aF-2.7775088461927266
aF-9.550987113030274
aF-4.552307056821522
aF-4.710229385213801
aF-4.5914925696556494
aF-6.251934810171972
aF-2.9698656703160693
aF-3.8553536939473405
aF-7.009727526691143
aF-8.267640721162827
aF-2.8122166351002
aF-2.1203058033480597
aF-3.2574071141577323
aF-7.924307394161668
aF-5.388713046428045
aF-10.383896235965379
aF-5.202112685673294
aF-9.913892606719644
aF-0.9967075916602901
aF-10.383896235965379
aF-10.121531971497888
aF-10.201574679171424
aF-10.121531971497888
aF-10.288586056161053
aF-10.288586056161053
aF-10.288586056161053
aF-10.383896235965379
aF-10.383896235965379
aF-10.383896235965379
aF-5.85452776339357
aa(lp23
F-3.1691829233692626
aF-8.24293766496732
aF-5.880816035728357
aF-9.588073953593703
aF-2.3392946013534885
aF-7.172736378131989
aF-8.478766375808846
aF-1.107805789853607
aF-2.367016017436353
aF-10.457111800617312
aF-9.689856647903644
aF-4.419424484845144
aF-6.032725892104289
aF-7.226003407313477
aF-2.337095086192811
aF-8.170030894159233
aF-10.719476065084804
aF-3.4628965787086474
aF-3.680166346362365
aF-4.0297524255307
aF-3.9005519998092817
aF-9.588073953593703
aF-5.186877402812101
aF-10.131689400182685
aF-4.2050597144129895
aF-7.98510855566522
aF-1.5852934569583519
aF-10.249472435839067
aF-10.719476065084804
aF-10.624165885280478
aF-10.719476065084804
aF-10.719476065084804
aF-10.719476065084804
aF-10.719476065084804
aF-10.719476065084804
aF-10.624165885280478
aF-10.719476065084804
aF-7.416259091782852
aa(lp24
F-3.691499609140933
aF-3.7349269025729512
aF-3.2462653878598147
aF-4.0214019742746965
aF-3.2820912403329103
aF-5.018037027457611
aF-3.194120446595025
aF-7.797183150243551
aF-3.7319121279048617
aF-9.3553277682901
aF-6.209022636256736
aF-2.2584684302172784
aF-3.412091043495375
aF-2.0906559078992504
aF-6.097231230268619
aF-3.1014989567146283
aF-8.949862660181937
aF-1.9061691650778354
aF-1.9730478452683053
aF-1.9656608757066159
aF-9.275285060616564
aF-6.783988612729794
aF-9.3553277682901
aF-7.318445841029061
aF-7.374326299423518
aF-5.267951875384094
aF-3.2719679564778636
aF-9.537649325084056
aF-9.537649325084056
aF-9.442339145279732
aF-9.537649325084056
aF-9.442339145279732
aF-9.537649325084056
aF-9.537649325084056
aF-9.537649325084056
aF-9.537649325084056
aF-9.537649325084056
aF-9.201177088462844
aa(lp25
F-2.4698961337017806
aF-8.46815572394259
aF-8.563465903746916
aF-7.870318723186971
aF-0.5213773295222568
aF-8.563465903746916
aF-8.301101639279425
aF-8.46815572394259
aF-1.7450884359159957
aF-8.46815572394259
aF-7.921612017574521
aF-5.445515997468676
aF-8.563465903746916
aF-4.568941676807026
aF-2.7914019216743093
aF-8.563465903746916
aF-8.563465903746916
aF-6.2709311466063715
aF-4.409281341168798
aF-7.975679238844797
aF-6.2913400182375785
aF-8.381144346952961
aF-8.032837652684746
aF-8.46815572394259
aF-5.260248930444964
aF-8.563465903746916
aF-3.1249519067055957
aF-8.563465903746916
aF-8.381144346952961
aF-8.563465903746916
aF-8.563465903746916
aF-8.563465903746916
aF-8.563465903746916
aF-8.563465903746916
aF-8.563465903746916
aF-8.563465903746916
aF-8.563465903746916
aF-8.563465903746916
aa(lp26
F-1.5979086886683107
aF-7.60125239830637
aF-7.6420743928266255
aF-5.3457589128461755
aF-1.893212333397528
aF-6.84044656927261
aF-8.11207802207236
aF-1.6239374868028305
aF-1.7640468702274594
aF-8.874218074119257
aF-7.002415897217666
aF-5.468270089698504
aF-8.181070893559312
aF-3.219475794887698
aF-2.5253288641819975
aF-8.294399578866315
aF-9.210690310740471
aF-4.571118698035047
aF-4.244355275540795
aF-5.658203481532089
aF-7.562031685153089
aF-9.210690310740471
aF-7.3085827843435505
aF-9.210690310740471
aF-6.87854641550488
aF-9.028368753946516
aF-2.174365930963626
aF-9.210690310740471
aF-9.210690310740471
aF-9.210690310740471
aF-9.115380130936146
aF-9.210690310740471
aF-9.210690310740471
aF-9.210690310740471
aF-9.210690310740471
aF-9.210690310740471
aF-9.210690310740471
aF-8.568836424568076
aa(lp27
F-2.2662245781600356
aF-6.909653476265217
aF-2.039046826772665
aF-6.573181239644004
aF-2.474086074663306
aF-5.844942739272789
aF-6.909653476265217
aF-4.321889441037509
aF-2.085347760360455
aF-6.909653476265217
aF-6.909653476265217
aF-6.439649847019481
aF-6.727331919471263
aF-6.909653476265217
aF-4.467306440896013
aF-1.5069760943929378
aF-6.379025225203047
aF-4.647890377791427
aF-5.778251364774117
aF-1.8818333574148607
aF-4.3839248319569615
aF-4.360208305339646
aF-6.814343296460892
aF-4.484850750546922
aF-5.186886878524113
aF-6.909653476265217
aF-2.58419719307973
aF-6.814343296460892
aF-6.814343296460892
aF-6.909653476265217
aF-6.909653476265217
aF-6.909653476265217
aF-6.909653476265217
aF-6.909653476265217
aF-6.909653476265217
aF-6.909653476265217
aF-6.909653476265217
aF-5.916401703254934
aa(lp28
F-3.875898862810797
aF-6.086916762279352
aF-5.617564386719937
aF-6.151455283416923
aF-2.919992343043251
aF-5.835023797679156
aF-7.0006067124534495
aF-7.319060443571984
aF-3.8301574814907235
aF-8.859505484519133
aF-7.452591836196507
aF-4.748631620345822
aF-4.450755779704498
aF-5.450009300042283
aF-2.227393919562324
aF-4.739114213358932
aF-9.041827041313088
aF-5.753425153796277
aF-3.1353758685320625
aF-4.246863283692341
aF-7.040347041102963
aF-7.655532680193197
aF-6.244545706482935
aF-7.706825974580748
aF-8.166358303959187
aF-7.733494221662909
aF-0.38523719162111003
aF-9.041827041313088
aF-9.041827041313088
aF-9.041827041313088
aF-9.041827041313088
aF-9.041827041313088
aF-9.041827041313088
aF-9.041827041313088
aF-9.041827041313088
aF-9.041827041313088
aF-9.041827041313088
aF-6.134925981465712
aa(lp29
F-2.55823792287355
aF-6.030204375423913
aF-5.934894195619588
aF-4.721871555773734
aF-0.9562813420917382
aF-5.934894195619588
aF-6.030204375423913
aF-3.2268439945173775
aF-2.366642729294266
aF-6.030204375423913
aF-5.6937321388027
aF-3.9139488606213604
aF-4.0287243752137885
aF-5.0369526024136295
aF-1.7633080480036623
aF-6.030204375423913
aF-6.030204375423913
aF-6.030204375423913
aF-5.847882818629958
aF-5.934894195619588
aF-3.1454036625772033
aF-5.6937321388027
aF-5.934894195619588
aF-6.030204375423913
aF-4.59511985013459
aF-3.8001899752647024
aF-3.1969910313676966
aF-6.030204375423913
aF-6.030204375423913
aF-5.934894195619588
aF-6.030204375423913
aF-6.030204375423913
aF-6.030204375423913
aF-6.030204375423913
aF-6.030204375423913
aF-6.030204375423913
aF-6.030204375423913
aF-6.030204375423913
aa(lp30
F-2.1595247688910306
aF-3.1376208139722013
aF-3.2127761396007477
aF-3.5621901363815924
aF-3.8421281954195114
aF-3.2743720835107823
aF-4.139149654286711
aF-2.790010219740206
aF-2.7581967322701297
aF-5.692613676147849
aF-5.276142764349089
aF-3.7868306939633953
aF-3.3583380219040784
aF-3.817777929840678
aF-2.64882746488821
aF-3.3747481017929664
aF-6.2420496288876395
aF-3.6876434327108933
aF-2.710845070913987
aF-1.867106775674171
aF-4.477852113763655
aF-4.926892940707937
aF-2.8084143343171877
aF-7.801682711609893
aF-4.705827672095365
aF-8.50908191487704
aF-3.393698732932447
aF-10.519211656666647
aF-5.774590135543043
aF-6.77391811327262
aF-6.967953580428759
aF-6.936685274123289
aF-7.314724569250546
aF-8.124568419254654
aF-8.604392094681366
aF-8.647409479765056
aF-8.52353999805227
aF-6.3198637854345625
aa(lp31
F-5.2447187854488
aF-5.714722414694536
aF-5.184094163632365
aF-5.619412234890211
aF-5.714722414694536
aF-4.353745861558934
aF-5.619412234890211
aF-5.714722414694536
aF-5.619412234890211
aF-5.714722414694536
aF-5.714722414694536
aF-5.714722414694536
aF-5.452358150227044
aF-5.619412234890211
aF-5.532400857900581
aF-5.714722414694536
aF-5.714722414694536
aF-5.714722414694536
aF-5.07286852852214
aF-5.2447187854488
aF-5.619412234890211
aF-5.714722414694536
aF-5.619412234890211
aF-5.714722414694536
aF-5.714722414694536
aF-5.714722414694536
aF-1.338965393034249
aF-1.2071650575734445
aF-3.097326581860456
aF-3.0405737652680065
aF-3.452959316220745
aF-3.4740127254185773
aF-3.2899196889762403
aF-3.344478673226675
aF-3.41213732170049
aF-3.3825785194589453
aF-3.4323400290180093
aF-5.714722414694536
aa(lp32
F-5.849324779946859
aF-6.056964144725104
aF-5.486419286257491
aF-6.13700685239864
aF-4.61458031695417
aF-4.690087869462315
aF-6.22401822938827
aF-6.319328409192595
aF-6.319328409192595
aF-6.319328409192595
aF-6.319328409192595
aF-6.22401822938827
aF-6.22401822938827
aF-6.319328409192595
aF-6.319328409192595
aF-6.22401822938827
aF-6.319328409192595
aF-5.982856172571382
aF-5.982856172571382
aF-5.982856172571382
aF-6.13700685239864
aF-6.319328409192595
aF-6.319328409192595
aF-6.319328409192595
aF-6.319328409192595
aF-6.22401822938827
aF-2.3835888771471327
aF-2.5651294889580156
aF-2.831953331289387
aF-2.684377297104214
aF-3.005142404520069
aF-2.9764666045434027
aF-2.952032579206121
aF-2.6532059422012746
aF-2.358515239595017
aF-1.5402049160810654
aF-2.308365455909545
aF-6.13700685239864
aa(lp33
F-5.510062872909877
aF-5.5970742498995065
aF-5.510062872909877
aF-5.430020165236341
aF-5.510062872909877
aF-4.560982318212731
aF-5.430020165236341
aF-5.355912193082618
aF-5.5970742498995065
aF-5.692384429703832
aF-5.692384429703832
aF-5.5970742498995065
aF-5.510062872909877
aF-5.286919321595668
aF-5.5970742498995065
aF-5.692384429703832
aF-5.692384429703832
aF-5.430020165236341
aF-5.2223808004580965
aF-4.816915692349932
aF-5.692384429703832
aF-5.692384429703832
aF-5.5970742498995065
aF-5.692384429703832
aF-5.692384429703832
aF-5.692384429703832
aF-1.6546102189701255
aF-2.183828529721177
aF-2.5226988490264026
aF-2.7117657939598887
aF-2.691664614638802
aF-2.8359142234833485
aF-2.691664614638802
aF-2.7964724914320516
aF-2.865070807774804
aF-2.721969964134131
aF-2.8829817343413344
aF-5.5970742498995065
aa(lp34
F-5.268254591179521
aF-5.530618855647012
aF-4.999990604584841
aF-5.268254591179521
aF-5.435308675842688
aF-4.336696387174578
aF-5.530618855647012
aF-5.3482972988530575
aF-5.530618855647012
aF-5.530618855647012
aF-5.530618855647012
aF-5.530618855647012
aF-5.435308675842688
aF-5.435308675842688
aF-5.435308675842688
aF-5.530618855647012
aF-5.530618855647012
aF-4.788681510917635
aF-5.194146619025799
aF-5.060615226401277
aF-5.530618855647012
aF-5.530618855647012
aF-5.530618855647012
aF-5.530618855647012
aF-5.530618855647012
aF-5.530618855647012
aF-1.7532707535454677
aF-2.3651438075059263
aF-2.623717795799637
aF-2.448708885851969
aF-2.8915615260317535
aF-2.691540392138398
aF-2.7456076134086738
aF-2.662719953602906
aF-2.822568654544802
aF-2.758030133407231
aF-2.7833479413915208
aF-5.530618855647012
aa(lp35
F-5.32544603393629
aF-5.412457410925919
aF-5.32544603393629
aF-5.32544603393629
aF-5.507767590730244
aF-4.22683374526818
aF-5.412457410925919
aF-5.507767590730244
aF-5.507767590730244
aF-5.507767590730244
aF-5.412457410925919
aF-5.412457410925919
aF-5.412457410925919
aF-5.507767590730244
aF-5.412457410925919
aF-5.507767590730244
aF-5.507767590730244
aF-5.507767590730244
aF-5.32544603393629
aF-4.5145158177199605
aF-5.412457410925919
aF-5.507767590730244
aF-5.507767590730244
aF-5.412457410925919
aF-5.507767590730244
aF-5.507767590730244
aF-1.7629805046780116
aF-2.537353125160543
aF-2.6008665308828687
aF-2.5899968586459647
aF-2.5580792556776597
aF-2.7604966764747525
aF-2.8545256261230287
aF-2.704407209823709
aF-2.741448481504058
aF-2.680453968801216
aF-2.680453968801216
aF-5.507767590730244
aa(lp36
F-5.303304908059076
aF-5.3986150878634005
aF-4.993149979755236
aF-5.3986150878634005
aF-5.3986150878634005
aF-4.565705964928297
aF-5.3986150878634005
aF-5.3986150878634005
aF-5.303304908059076
aF-5.3986150878634005
aF-5.3986150878634005
aF-5.3986150878634005
aF-5.2162935310694465
aF-5.3986150878634005
aF-5.303304908059076
aF-5.303304908059076
aF-5.3986150878634005
aF-5.136250823395909
aF-5.303304908059076
aF-4.86798683680123
aF-5.3986150878634005
aF-5.3986150878634005
aF-5.3986150878634005
aF-5.3986150878634005
aF-5.303304908059076
aF-5.3986150878634005
aF-1.6948470212557136
aF-2.167810692129926
aF-2.513814375016691
aF-2.508243329967236
aF-2.6577750639381996
aF-2.632295978637215
aF-3.1473232892569056
aF-3.2585489243671297
aF-2.841387776495774
aF-2.93902624605969
aF-2.71076759407871
aF-5.3986150878634005
aa(lp37
F-5.045408260851301
aF-5.125450968524837
aF-5.125450968524837
aF-4.837768896073056
aF-5.307772525318792
aF-3.8726880000294694
aF-5.212462345514467
aF-5.125450968524837
aF-5.212462345514467
aF-5.307772525318792
aF-5.307772525318792
aF-5.307772525318792
aF-5.212462345514467
aF-5.307772525318792
aF-5.212462345514467
aF-5.045408260851301
aF-5.307772525318792
aF-5.125450968524837
aF-4.971300288697579
aF-4.614625344758847
aF-5.307772525318792
aF-5.307772525318792
aF-5.212462345514467
aF-5.307772525318792
aF-5.307772525318792
aF-5.307772525318792
aF-1.6781124308648268
aF-2.2443816032909862
aF-2.579919696920402
aF-2.735160295111686
aF-2.7740757113613594
aF-2.9098772525204213
aF-2.668715195703533
aF-2.8145670727160965
aF-3.1105479479825724
aF-3.0777581251595816
aF-2.806336573579581
aF-5.212462345514467
aa(lp38
F-5.08243902622524
aF-5.169450403214869
aF-5.169450403214869
aF-5.169450403214869
aF-5.08243902622524
aF-4.43185146008409
aF-5.169450403214869
aF-5.264760583019194
aF-5.08243902622524
aF-5.264760583019194
aF-5.264760583019194
aF-5.169450403214869
aF-5.264760583019194
aF-5.169450403214869
aF-5.264760583019194
aF-5.002396318551702
aF-5.264760583019194
aF-5.169450403214869
aF-4.928288346397981
aF-4.571613402459248
aF-5.264760583019194
aF-5.264760583019194
aF-5.169450403214869
aF-5.264760583019194
aF-5.264760583019194
aF-5.264760583019194
aF-1.7094125215297804
aF-2.755161320640822
aF-2.7882221829017104
aF-2.913385325855716
aF-2.9823781973426677
aF-3.185319041339358
aF-2.7153154120936223
aF-2.5239205590939933
aF-2.3911959434394103
aF-2.543465155166963
aF-2.684543753426869
aF-5.169450403214869
aa(lp39
F-5.27339395809558
aF-5.535758222563071
aF-5.353436665769117
aF-5.353436665769117
aF-5.199285985941858
aF-4.40435611107197
aF-5.535758222563071
aF-5.440448042758746
aF-5.440448042758746
aF-5.535758222563071
aF-5.535758222563071
aF-5.440448042758746
aF-5.065754593317335
aF-5.440448042758746
aF-5.535758222563071
aF-5.27339395809558
aF-5.535758222563071
aF-5.440448042758746
aF-5.353436665769117
aF-5.0051299715009
aF-5.535758222563071
aF-5.535758222563071
aF-5.535758222563071
aF-5.535758222563071
aF-5.535758222563071
aF-5.27339395809558
aF-2.082601101970204
aF-2.4266972637020765
aF-2.395925605035323
aF-2.76316950032329
aF-2.868530015981116
aF-2.8411310417930014
aF-2.6019013527271673
aF-2.289267230661897
aF-2.60723469870253
aF-2.896700892947812
aF-2.481757040885104
aF-5.440448042758746
aa(lp40
F-5.294309345150498
aF-5.198999165346173
aF-5.111987788356543
aF-5.111987788356543
aF-5.198999165346173
aF-3.9859765255003192
aF-5.294309345150498
aF-5.198999165346173
aF-5.294309345150498
aF-5.294309345150498
aF-5.294309345150498
aF-5.294309345150498
aF-4.957837108529285
aF-5.294309345150498
aF-5.294309345150498
aF-5.198999165346173
aF-5.294309345150498
aF-5.294309345150498
aF-5.111987788356543
aF-4.763681094088327
aF-5.294309345150498
aF-5.198999165346173
aF-5.294309345150498
aF-5.294309345150498
aF-5.294309345150498
aF-5.198999165346173
aF-1.8254533150145276
aF-2.1897226666844247
aF-1.9167218291274764
aF-2.620160695723969
aF-2.887364236832209
aF-3.0535996558745397
aF-2.9719216248602724
aF-2.8964140723521274
aF-3.240185611454952
aF-3.0970847678142785
aF-2.94293408798702
aF-5.294309345150498
aa(lp41
F-2.991011000938069
aF-3.8239201238731733
aF-2.9278320993165377
aF-3.620979279876483
aF-3.493418054238464
aF-3.7911303010501824
aF-4.180595067811906
aF-3.6769379335245276
aF-3.293291872811003
aF-5.475917650726069
aF-5.7210401087590546
aF-3.7911303010501824
aF-3.910931500862803
aF-4.484277481610127
aF-4.334745747639164
aF-3.385665192942018
aF-6.126505216867219
aF-4.089623289606179
aF-2.7506256431893537
aF-2.146823562965258
aF-4.850211750961657
aF-4.4682771402636865
aF-4.157064570401712
aF-5.7210401087590546
aF-6.308826773661173
aF-6.308826773661173
aF-1.0761151642111306
aF-6.308826773661173
aF-6.213516593856848
aF-6.213516593856848
aF-6.308826773661173
aF-6.308826773661173
aF-6.308826773661173
aF-6.308826773661173
aF-6.213516593856848
aF-6.308826773661173
aF-6.308826773661173
aF-4.897839799950911
aas.